target datalayout = "e-m:e-p270:32:32-p271:32:32-p272:64:64-i64:64-i128:128-f80:128-n8:16:32:64-S128"
target triple = "x86_64-pc-linux-gnu"

%struct.SUNStepper_ = type { ptr, ptr, ptr, i32 }
%struct.SUNStepper_Ops_ = type { ptr, ptr, ptr, ptr, ptr, ptr, ptr, ptr }

; Function Attrs: nounwind uwtable
define i32 @SUNStepper_SetForcing(ptr noundef %0, double noundef %1, double noundef %2, ptr noundef %3, i32 noundef %4) #0 {
  %6 = alloca i32, align 4
  %7 = alloca ptr, align 8
  %8 = alloca double, align 8
  %9 = alloca double, align 8
  %10 = alloca ptr, align 8
  %11 = alloca i32, align 4
  %12 = alloca ptr, align 8
  %13 = alloca i32, align 4
  store ptr %0, ptr %7, align 8, !tbaa !10
  store double %1, ptr %8, align 8, !tbaa !29
  store double %2, ptr %9, align 8, !tbaa !29
  store ptr %3, ptr %10, align 8, !tbaa !36
  store i32 %4, ptr %11, align 4, !tbaa !35
  call void @llvm.lifetime.start.p0(i64 8, ptr %12) #4
  %14 = load ptr, ptr %7, align 8, !tbaa !10
  %15 = getelementptr inbounds nuw %struct.SUNStepper_, ptr %14, i32 0, i32 2
  %16 = load ptr, ptr %15, align 8, !tbaa !16
  store ptr %16, ptr %12, align 8, !tbaa !3
  %17 = load ptr, ptr %7, align 8, !tbaa !10
  %18 = getelementptr inbounds nuw %struct.SUNStepper_, ptr %17, i32 0, i32 1
  %19 = load ptr, ptr %18, align 8, !tbaa !18
  %20 = getelementptr inbounds nuw %struct.SUNStepper_Ops_, ptr %19, i32 0, i32 6
  %21 = load ptr, ptr %20, align 8, !tbaa !26
  %22 = icmp ne ptr %21, null
  br i1 %22, label %23, label %35

23:                                               ; preds = %5
  %24 = load ptr, ptr %7, align 8, !tbaa !10
  %25 = getelementptr inbounds nuw %struct.SUNStepper_, ptr %24, i32 0, i32 1
  %26 = load ptr, ptr %25, align 8, !tbaa !18
  %27 = getelementptr inbounds nuw %struct.SUNStepper_Ops_, ptr %26, i32 0, i32 6
  %28 = load ptr, ptr %27, align 8, !tbaa !26
  %29 = load ptr, ptr %7, align 8, !tbaa !10
  %30 = load double, ptr %8, align 8, !tbaa !29
  %31 = load double, ptr %9, align 8, !tbaa !29
  %32 = load ptr, ptr %10, align 8, !tbaa !36
  %33 = load i32, ptr %11, align 4, !tbaa !35
  %34 = call i32 %28(ptr noundef %29, double noundef %30, double noundef %31, ptr noundef %32, i32 noundef %33)
  store i32 %34, ptr %6, align 4
  store i32 1, ptr %13, align 4
  br label %36

35:                                               ; preds = %5
  store i32 -9985, ptr %6, align 4
  store i32 1, ptr %13, align 4
  br label %36

36:                                               ; preds = %35, %23
  call void @llvm.lifetime.end.p0(i64 8, ptr %12) #4
  %37 = load i32, ptr %6, align 4
  ret i32 %37
}